target datalayout = "e-m:e-p270:32:32-p271:32:32-p272:64:64-i64:64-i128:128-f80:128-n8:16:32:64-S128"
target triple = "x86_64-pc-linux-gnu"

%struct.SyncOps = type { ptr, ptr, ptr }
%struct.ForEachState = type { ptr, i32 }
%struct.List = type { i32, i32, i32, ptr, [0 x %union.ListCell] }
%union.ListCell = type { ptr }
%struct.PendingUnlinkEntry = type { %struct.FileTag, i16, i8 }
%struct.FileTag = type { i16, i16, %struct.RelFileLocator, i64 }
%struct.RelFileLocator = type { i32, i32, i32 }

@pendingUnlinks = internal global ptr null, align 8
@checkpoint_cycle_ctr = internal global i16 0, align 2
@.str.2 = private unnamed_addr constant [31 x i8] c"could not remove file \22%s\22: %m\00", align 1
@.str.3 = private unnamed_addr constant [7 x i8] c"sync.c\00", align 1
@__func__.SyncPostCheckpoint = private unnamed_addr constant [19 x i8] c"SyncPostCheckpoint\00", align 1

; Function Attrs: inlinehint nounwind uwtable
define internal ptr @list_nth_cell(ptr noundef %0, i32 noundef %1) #6 {
  %3 = alloca ptr, align 8
  %4 = alloca i32, align 4
  store ptr %0, ptr %3, align 8
  store i32 %1, ptr %4, align 4
  %5 = load ptr, ptr %3, align 8
  %6 = getelementptr inbounds nuw %struct.List, ptr %5, i32 0, i32 3
  %7 = load ptr, ptr %6, align 8
  %8 = load i32, ptr %4, align 4
  %9 = sext i32 %8 to i64
  %10 = getelementptr inbounds %union.ListCell, ptr %7, i64 %9
  ret ptr %10
}

; Function Attrs: inlinehint nounwind uwtable
define internal ptr @list_nth(ptr noundef %0, i32 noundef %1) #6 {
  %3 = alloca ptr, align 8
  %4 = alloca i32, align 4
  store ptr %0, ptr %3, align 8
  store i32 %1, ptr %4, align 4
  %5 = load ptr, ptr %3, align 8
  %6 = load i32, ptr %4, align 4
  %7 = call ptr @list_nth_cell(ptr noundef %5, i32 noundef %6)
  %8 = load ptr, ptr %7, align 8
  ret ptr %8
}

; Function Attrs: inlinehint nounwind uwtable
define internal i32 @list_cell_number(ptr noundef %0, ptr noundef %1) #6 {
  %3 = alloca ptr, align 8
  %4 = alloca ptr, align 8
  store ptr %0, ptr %3, align 8
  store ptr %1, ptr %4, align 8
  %5 = load ptr, ptr %4, align 8
  %6 = load ptr, ptr %3, align 8
  %7 = getelementptr inbounds nuw %struct.List, ptr %6, i32 0, i32 3
  %8 = load ptr, ptr %7, align 8
  %9 = ptrtoint ptr %5 to i64
  %10 = ptrtoint ptr %8 to i64
  %11 = sub i64 %9, %10
  %12 = sdiv exact i64 %11, 8
  %13 = trunc i64 %12 to i32
  ret i32 %13
}

; Function Attrs: nounwind uwtable
define dso_local void @SyncPostCheckpoint() #0 {
  %1 = alloca i32, align 4
  %2 = alloca ptr, align 8
  %3 = alloca %struct.ForEachState, align 8
  %4 = alloca i32, align 4
  %5 = alloca ptr, align 8
  %6 = alloca [1024 x i8], align 16
  %7 = alloca i32, align 4
  %8 = alloca i32, align 4
  call void @llvm.lifetime.start.p0(i64 4, ptr %1) #9
  call void @llvm.lifetime.start.p0(i64 8, ptr %2) #9
  store i32 10, ptr %1, align 4
  call void @llvm.lifetime.start.p0(i64 16, ptr %3) #9
  %9 = getelementptr inbounds nuw %struct.ForEachState, ptr %3, i32 0, i32 0
  %10 = load ptr, ptr @pendingUnlinks, align 8
  store ptr %10, ptr %9, align 8
  %11 = getelementptr inbounds nuw %struct.ForEachState, ptr %3, i32 0, i32 1
  store i32 0, ptr %11, align 8
  %12 = getelementptr i8, ptr %3, i64 12
  call void @llvm.memset.p0.i64(ptr align 4 %12, i8 0, i64 4, i1 false)
  br label %13

13:                                               ; preds = %99, %0
  %14 = getelementptr inbounds nuw %struct.ForEachState, ptr %3, i32 0, i32 0
  %15 = load ptr, ptr %14, align 8
  %16 = icmp ne ptr %15, null
  br i1 %16, label %17, label %34

17:                                               ; preds = %13
  %18 = getelementptr inbounds nuw %struct.ForEachState, ptr %3, i32 0, i32 1
  %19 = load i32, ptr %18, align 8
  %20 = getelementptr inbounds nuw %struct.ForEachState, ptr %3, i32 0, i32 0
  %21 = load ptr, ptr %20, align 8
  %22 = getelementptr inbounds nuw %struct.List, ptr %21, i32 0, i32 1
  %23 = load i32, ptr %22, align 4
  %24 = icmp slt i32 %19, %23
  br i1 %24, label %25, label %34

25:                                               ; preds = %17
  %26 = getelementptr inbounds nuw %struct.ForEachState, ptr %3, i32 0, i32 0
  %27 = load ptr, ptr %26, align 8
  %28 = getelementptr inbounds nuw %struct.List, ptr %27, i32 0, i32 3
  %29 = load ptr, ptr %28, align 8
  %30 = getelementptr inbounds nuw %struct.ForEachState, ptr %3, i32 0, i32 1
  %31 = load i32, ptr %30, align 8
  %32 = sext i32 %31 to i64
  %33 = getelementptr inbounds %union.ListCell, ptr %29, i64 %32
  store ptr %33, ptr %2, align 8
  br label %35

34:                                               ; preds = %17, %13
  store ptr null, ptr %2, align 8
  br label %35

35:                                               ; preds = %34, %25
  %36 = phi i32 [ 1, %25 ], [ 0, %34 ]
  %37 = icmp ne i32 %36, 0
  br i1 %37, label %39, label %38

38:                                               ; preds = %35
  store i32 2, ptr %4, align 4
  br label %103

39:                                               ; preds = %35
  call void @llvm.lifetime.start.p0(i64 8, ptr %5) #9
  %40 = load ptr, ptr %2, align 8
  %41 = load ptr, ptr %40, align 8
  store ptr %41, ptr %5, align 8
  call void @llvm.lifetime.start.p0(i64 1024, ptr %6) #9
  %42 = load ptr, ptr %5, align 8
  %43 = getelementptr inbounds nuw %struct.PendingUnlinkEntry, ptr %42, i32 0, i32 2
  %44 = load i8, ptr %43, align 2, !range !4, !noundef !5
  %45 = trunc i8 %44 to i1
  br i1 %45, label %46, label %47

46:                                               ; preds = %39
  store i32 4, ptr %4, align 4
  br label %96

47:                                               ; preds = %39
  %48 = load ptr, ptr %5, align 8
  %49 = getelementptr inbounds nuw %struct.PendingUnlinkEntry, ptr %48, i32 0, i32 1
  %50 = load i16, ptr %49, align 8
  %51 = zext i16 %50 to i32
  %52 = load i16, ptr @checkpoint_cycle_ctr, align 2
  %53 = zext i16 %52 to i32
  %54 = icmp eq i32 %51, %53
  br i1 %54, label %55, label %56

55:                                               ; preds = %47
  store i32 2, ptr %4, align 4
  br label %96

56:                                               ; preds = %47
  %57 = load ptr, ptr %5, align 8
  %58 = getelementptr inbounds nuw %struct.PendingUnlinkEntry, ptr %57, i32 0, i32 0
  %59 = getelementptr inbounds nuw %struct.FileTag, ptr %58, i32 0, i32 0
  %60 = load i16, ptr %59, align 8
  %61 = sext i16 %60 to i64
  %62 = getelementptr inbounds [5 x %struct.SyncOps], ptr @syncsw, i64 0, i64 %61
  %63 = getelementptr inbounds nuw %struct.SyncOps, ptr %62, i32 0, i32 1
  %64 = load ptr, ptr %63, align 8
  %65 = load ptr, ptr %5, align 8
  %66 = getelementptr inbounds nuw %struct.PendingUnlinkEntry, ptr %65, i32 0, i32 0
  %67 = getelementptr inbounds [1024 x i8], ptr %6, i64 0, i64 0
  %68 = call i32 %64(ptr noundef %66, ptr noundef %67)
  %69 = icmp slt i32 %68, 0
  br i1 %69, label %70, label %88

70:                                               ; preds = %56
  %71 = call ptr @__errno_location() #10
  %72 = load i32, ptr %71, align 4
  %73 = icmp ne i32 %72, 2
  br i1 %73, label %74, label %87

74:                                               ; preds = %70
  br label %75

75:                                               ; preds = %74
  br i1 false, label %76, label %78

76:                                               ; preds = %75
  %77 = call zeroext i1 @errstart_cold(i32 noundef 19, ptr noundef null) #11
  br i1 %77, label %80, label %84

78:                                               ; preds = %75
  %79 = call zeroext i1 @errstart(i32 noundef 19, ptr noundef null)
  br i1 %79, label %80, label %84

80:                                               ; preds = %78, %76
  %81 = call i32 @errcode_for_file_access()
  %82 = getelementptr inbounds [1024 x i8], ptr %6, i64 0, i64 0
  %83 = call i32 (ptr, ...) @errmsg(ptr noundef @.str.2, ptr noundef %82)
  call void @errfinish(ptr noundef @.str.3, i32 noundef 243, ptr noundef @__func__.SyncPostCheckpoint)
  br label %84

84:                                               ; preds = %80, %78, %76
  br label %85

85:                                               ; preds = %84
  br label %86

86:                                               ; preds = %85
  br label %87

87:                                               ; preds = %86, %70
  br label %88

88:                                               ; preds = %87, %56
  %89 = load ptr, ptr %5, align 8
  %90 = getelementptr inbounds nuw %struct.PendingUnlinkEntry, ptr %89, i32 0, i32 2
  store i8 1, ptr %90, align 2
  %91 = load i32, ptr %1, align 4
  %92 = add i32 %91, -1
  store i32 %92, ptr %1, align 4
  %93 = icmp sle i32 %92, 0
  br i1 %93, label %94, label %95

94:                                               ; preds = %88
  call void @AbsorbSyncRequests()
  store i32 10, ptr %1, align 4
  br label %95

95:                                               ; preds = %94, %88
  store i32 0, ptr %4, align 4
  br label %96

96:                                               ; preds = %95, %55, %46
  call void @llvm.lifetime.end.p0(i64 1024, ptr %6) #9
  call void @llvm.lifetime.end.p0(i64 8, ptr %5) #9
  %97 = load i32, ptr %4, align 4
  switch i32 %97, label %103 [
    i32 0, label %98
    i32 4, label %99
  ]

98:                                               ; preds = %96
  br label %99

99:                                               ; preds = %98, %96
  %100 = getelementptr inbounds nuw %struct.ForEachState, ptr %3, i32 0, i32 1
  %101 = load i32, ptr %100, align 8
  %102 = add i32 %101, 1
  store i32 %102, ptr %100, align 8
  br label %13, !llvm.loop !6

103:                                              ; preds = %96, %38
  call void @llvm.lifetime.end.p0(i64 16, ptr %3) #9
  br label %104

104:                                              ; preds = %103
  %105 = load ptr, ptr %2, align 8
  %106 = icmp eq ptr %105, null
  br i1 %106, label %107, label %109

107:                                              ; preds = %104
  %108 = load ptr, ptr @pendingUnlinks, align 8
  call void @list_free_deep(ptr noundef %108)
  store ptr null, ptr @pendingUnlinks, align 8
  br label %129

109:                                              ; preds = %104
  call void @llvm.lifetime.start.p0(i64 4, ptr %7) #9
  %110 = load ptr, ptr @pendingUnlinks, align 8
  %111 = load ptr, ptr %2, align 8
  %112 = call i32 @list_cell_number(ptr noundef %110, ptr noundef %111)
  store i32 %112, ptr %7, align 4
  call void @llvm.lifetime.start.p0(i64 4, ptr %8) #9
  store i32 0, ptr %8, align 4
  br label %113

113:                                              ; preds = %122, %109
  %114 = load i32, ptr %8, align 4
  %115 = load i32, ptr %7, align 4
  %116 = icmp slt i32 %114, %115
  br i1 %116, label %118, label %117

117:                                              ; preds = %113
  store i32 7, ptr %4, align 4
  call void @llvm.lifetime.end.p0(i64 4, ptr %8) #9
  br label %125

118:                                              ; preds = %113
  %119 = load ptr, ptr @pendingUnlinks, align 8
  %120 = load i32, ptr %8, align 4
  %121 = call ptr @list_nth(ptr noundef %119, i32 noundef %120)
  call void @pfree(ptr noundef %121)
  br label %122

122:                                              ; preds = %118
  %123 = load i32, ptr %8, align 4
  %124 = add i32 %123, 1
  store i32 %124, ptr %8, align 4
  br label %113, !llvm.loop !8

125:                                              ; preds = %117
  %126 = load ptr, ptr @pendingUnlinks, align 8
  %127 = load i32, ptr %7, align 4
  %128 = call ptr @list_delete_first_n(ptr noundef %126, i32 noundef %127)
  store ptr %128, ptr @pendingUnlinks, align 8
  call void @llvm.lifetime.end.p0(i64 4, ptr %7) #9
  br label %129

129:                                              ; preds = %125, %107
  call void @llvm.lifetime.end.p0(i64 8, ptr %2) #9
  call void @llvm.lifetime.end.p0(i64 4, ptr %1) #9
  ret void
}