; Function Attrs: nounwind uwtable
define dso_local void @SyncPostCheckpoint() local_unnamed_addr #0 {
  %1 = alloca [1024 x i8], align 16
  %2 = load ptr, ptr @pendingUnlinks, align 8
  %.not = icmp eq ptr %2, null
  br i1 %.not, label %.thread35, label %.lr.ph

.lr.ph:                                           ; preds = %0
  %3 = getelementptr inbounds nuw i8, ptr %2, i64 4
  %4 = getelementptr inbounds nuw i8, ptr %2, i64 16
  %5 = load i32, ptr %3, align 4
  %6 = icmp sgt i32 %5, 0
  br i1 %6, label %.lr.ph45, label %.thread35

.lr.ph45:                                         ; preds = %.lr.ph, %37
  %indvars.iv = phi i64 [ %indvars.iv.next, %37 ], [ 0, %.lr.ph ]
  %.0184043 = phi i32 [ %.1.ph, %37 ], [ 10, %.lr.ph ]
  %7 = load ptr, ptr %4, align 8
  %8 = getelementptr inbounds nuw %union.ListCell, ptr %7, i64 %indvars.iv
  %9 = load ptr, ptr %8, align 8
  call void @llvm.lifetime.start.p0(i64 1024, ptr nonnull %1) #9
  %10 = getelementptr inbounds nuw i8, ptr %9, i64 26
  %11 = load i8, ptr %10, align 2, !range !4, !noundef !5
  %12 = trunc nuw i8 %11 to i1
  br i1 %12, label %37, label %13

13:                                               ; preds = %.lr.ph45
  %14 = getelementptr inbounds nuw i8, ptr %9, i64 24
  %15 = load i16, ptr %14, align 8
  %16 = load i16, ptr @checkpoint_cycle_ctr, align 2
  %17 = icmp eq i16 %15, %16
  br i1 %17, label %.split, label %18

18:                                               ; preds = %13
  %19 = load i16, ptr %9, align 8
  %20 = sext i16 %19 to i64
  %21 = getelementptr inbounds [5 x %struct.SyncOps], ptr @syncsw, i64 0, i64 %20, i32 1
  %22 = load ptr, ptr %21, align 8
  %23 = call i32 %22(ptr noundef nonnull %9, ptr noundef nonnull %1) #9
  %24 = icmp slt i32 %23, 0
  br i1 %24, label %25, label %33

25:                                               ; preds = %18
  %26 = tail call ptr @__errno_location() #10
  %27 = load i32, ptr %26, align 4
  %.not25 = icmp eq i32 %27, 2
  br i1 %.not25, label %33, label %28

28:                                               ; preds = %25
  %29 = call zeroext i1 @errstart(i32 noundef 19, ptr noundef null) #9
  br i1 %29, label %30, label %33

30:                                               ; preds = %28
  %31 = call i32 @errcode_for_file_access() #9
  %32 = call i32 (ptr, ...) @errmsg(ptr noundef nonnull @.str.2, ptr noundef nonnull %1) #9
  call void @errfinish(ptr noundef nonnull @.str.3, i32 noundef 243, ptr noundef nonnull @__func__.SyncPostCheckpoint) #9
  br label %33

33:                                               ; preds = %25, %30, %28, %18
  store i8 1, ptr %10, align 2
  %34 = add nsw i32 %.0184043, -1
  %35 = icmp slt i32 %.0184043, 2
  br i1 %35, label %36, label %37

36:                                               ; preds = %33
  call void @AbsorbSyncRequests() #9
  br label %37

37:                                               ; preds = %.lr.ph45, %36, %33
  %.1.ph = phi i32 [ %34, %33 ], [ 10, %36 ], [ %.0184043, %.lr.ph45 ]
  call void @llvm.lifetime.end.p0(i64 1024, ptr nonnull %1) #9
  %indvars.iv.next = add nuw nsw i64 %indvars.iv, 1
  %38 = load i32, ptr %3, align 4
  %39 = sext i32 %38 to i64
  %40 = icmp slt i64 %indvars.iv.next, %39
  br i1 %40, label %.lr.ph45, label %.thread35.loopexit

.split:                                           ; preds = %13
  %41 = getelementptr inbounds nuw %union.ListCell, ptr %7, i64 %indvars.iv
  call void @llvm.lifetime.end.p0(i64 1024, ptr nonnull %1) #9
  %42 = load ptr, ptr @pendingUnlinks, align 8
  %43 = getelementptr i8, ptr %42, i64 16
  %.val = load ptr, ptr %43, align 8
  %44 = ptrtoint ptr %41 to i64
  %45 = ptrtoint ptr %.val to i64
  %46 = sub i64 %44, %45
  %47 = lshr exact i64 %46, 3
  %48 = trunc i64 %47 to i32
  %49 = icmp sgt i32 %48, 0
  br i1 %49, label %.lr.ph47.preheader, label %._crit_edge

.lr.ph47.preheader:                               ; preds = %.split
  %50 = and i64 %47, 2147483647
  br label %.lr.ph47

.thread35.loopexit:                               ; preds = %37
  %.pre55 = load ptr, ptr @pendingUnlinks, align 8
  br label %.thread35

.thread35:                                        ; preds = %.thread35.loopexit, %.lr.ph, %0
  %51 = phi ptr [ %.pre55, %.thread35.loopexit ], [ %2, %.lr.ph ], [ null, %0 ]
  call void @list_free_deep(ptr noundef %51) #9
  br label %59

._crit_edge.loopexit:                             ; preds = %.lr.ph47
  %.pre = load ptr, ptr @pendingUnlinks, align 8
  br label %._crit_edge

._crit_edge:                                      ; preds = %._crit_edge.loopexit, %.split
  %52 = phi ptr [ %.pre, %._crit_edge.loopexit ], [ %42, %.split ]
  %53 = call ptr @list_delete_first_n(ptr noundef %52, i32 noundef %48) #9
  br label %59

.lr.ph47:                                         ; preds = %.lr.ph47.preheader, %.lr.ph47
  %indvars.iv52 = phi i64 [ 0, %.lr.ph47.preheader ], [ %indvars.iv.next53, %.lr.ph47 ]
  %54 = load ptr, ptr @pendingUnlinks, align 8
  %55 = getelementptr i8, ptr %54, i64 16
  %.val26 = load ptr, ptr %55, align 8
  %56 = getelementptr inbounds nuw %union.ListCell, ptr %.val26, i64 %indvars.iv52
  %57 = load ptr, ptr %56, align 8
  call void @pfree(ptr noundef %57) #9
  %indvars.iv.next53 = add nuw nsw i64 %indvars.iv52, 1
  %58 = icmp samesign ult i64 %indvars.iv.next53, %50
  br i1 %58, label %.lr.ph47, label %._crit_edge.loopexit, !llvm.loop !6

59:                                               ; preds = %._crit_edge, %.thread35
  %storemerge = phi ptr [ %53, %._crit_edge ], [ null, %.thread35 ]
  store ptr %storemerge, ptr @pendingUnlinks, align 8
  ret void
}